; Function Attrs: nounwind uwtable
define hidden noundef ptr @SDL_GetWindowFromID_REAL(i32 noundef %0) local_unnamed_addr #0 {
  %2 = load ptr, ptr @_this, align 8
  %.not = icmp eq ptr %2, null
  br i1 %.not, label %.loopexit11.sink.split, label %3

3:                                                ; preds = %1
  %.not9 = icmp eq i32 %0, 0
  br i1 %.not9, label %.loopexit11.sink.split, label %4

4:                                                ; preds = %3
  %5 = getelementptr inbounds nuw i8, ptr %2, i64 832
  %.013 = load ptr, ptr %5, align 8
  %.not1014 = icmp eq ptr %.013, null
  br i1 %.not1014, label %.loopexit11.sink.split, label %.lr.ph

.lr.ph:                                           ; preds = %4, %8
  %.015 = phi ptr [ %.0, %8 ], [ %.013, %4 ]
  %6 = load i32, ptr %.015, align 8
  %7 = icmp eq i32 %6, %0
  br i1 %7, label %.loopexit11, label %8

8:                                                ; preds = %.lr.ph
  %9 = getelementptr inbounds nuw i8, ptr %.015, i64 416
  %.0 = load ptr, ptr %9, align 8
  %.not10 = icmp eq ptr %.0, null
  br i1 %.not10, label %.loopexit11.sink.split, label %.lr.ph, !llvm.loop !39

.loopexit11.sink.split:                           ; preds = %8, %3, %4, %1
  %.str.43.sink = phi ptr [ @.str.1, %1 ], [ @.str.43, %4 ], [ @.str.43, %3 ], [ @.str.43, %8 ]
  %10 = tail call zeroext i1 (ptr, ...) @SDL_SetError_REAL(ptr noundef nonnull %.str.43.sink) #19
  br label %.loopexit11

.loopexit11:                                      ; preds = %.lr.ph, %.loopexit11.sink.split
  %.06 = phi ptr [ null, %.loopexit11.sink.split ], [ %.015, %.lr.ph ]
  ret ptr %.06
}